target datalayout = "e-m:e-p270:32:32-p271:32:32-p272:64:64-i64:64-i128:128-f80:128-n8:16:32:64-S128"
target triple = "x86_64-pc-linux-gnu"

%"struct.pkpy::StrName" = type { i16 }
%"struct.pkpy::Type" = type { i16 }
%class.anon = type { i8 }
%"struct.pkpy::any" = type { ptr, ptr }
%class.anon.50 = type { i8 }
%class.anon.52 = type { i8 }
%class.anon.54 = type { i8 }
%class.anon.56 = type { i8 }
%class.anon.58 = type { i8 }
%class.anon.60 = type { i8 }
%class.anon.62 = type { i8 }
%"struct.pkpy::Py_" = type <{ %"struct.pkpy::PyObject", %"struct.pkpy::Type", [6 x i8] }>
%"struct.pkpy::PyObject" = type { ptr, i8, i8, %"struct.pkpy::Type", ptr }
%"struct.pkpy::any::vtable" = type { %"struct.std::type_index", ptr }
%"struct.std::type_index" = type { ptr }

@_ZN4pkpy7__new__E = external global %"struct.pkpy::StrName", align 2

; Function Attrs: mustprogress nounwind uwtable
define internal noundef ptr @"_ZZN4pkpy5VoidP9_registerEPNS_2VMEPNS_8PyObjectES4_ENK3$_7cvPFS4_S2_S4_S4_EEv"(ptr noundef nonnull align 1 dereferenceable(1) %0) #6 align 2 {
  %2 = alloca ptr, align 8
  store ptr %0, ptr %2, align 8
  ret ptr @"_ZZN4pkpy5VoidP9_registerEPNS_2VMEPNS_8PyObjectES4_EN3$_78__invokeES2_S4_S4_"
}

; Function Attrs: mustprogress nounwind uwtable
define internal noundef ptr @"_ZZN4pkpy5VoidP9_registerEPNS_2VMEPNS_8PyObjectES4_ENK3$_6cvPFS4_S2_S4_S4_EEv"(ptr noundef nonnull align 1 dereferenceable(1) %0) #6 align 2 {
  %2 = alloca ptr, align 8
  store ptr %0, ptr %2, align 8
  ret ptr @"_ZZN4pkpy5VoidP9_registerEPNS_2VMEPNS_8PyObjectES4_EN3$_68__invokeES2_S4_S4_"
}

; Function Attrs: mustprogress nounwind uwtable
define internal noundef ptr @"_ZZN4pkpy5VoidP9_registerEPNS_2VMEPNS_8PyObjectES4_ENK3$_5cvPFS4_S2_S4_S4_EEv"(ptr noundef nonnull align 1 dereferenceable(1) %0) #6 align 2 {
  %2 = alloca ptr, align 8
  store ptr %0, ptr %2, align 8
  ret ptr @"_ZZN4pkpy5VoidP9_registerEPNS_2VMEPNS_8PyObjectES4_EN3$_58__invokeES2_S4_S4_"
}

; Function Attrs: mustprogress nounwind uwtable
define internal noundef ptr @"_ZZN4pkpy5VoidP9_registerEPNS_2VMEPNS_8PyObjectES4_ENK3$_4cvPFS4_S2_S4_S4_EEv"(ptr noundef nonnull align 1 dereferenceable(1) %0) #6 align 2 {
  %2 = alloca ptr, align 8
  store ptr %0, ptr %2, align 8
  ret ptr @"_ZZN4pkpy5VoidP9_registerEPNS_2VMEPNS_8PyObjectES4_EN3$_48__invokeES2_S4_S4_"
}

; Function Attrs: mustprogress nounwind uwtable
define internal noundef ptr @"_ZZN4pkpy5VoidP9_registerEPNS_2VMEPNS_8PyObjectES4_ENK3$_3cvPFS4_S2_S4_S4_EEv"(ptr noundef nonnull align 1 dereferenceable(1) %0) #6 align 2 {
  %2 = alloca ptr, align 8
  store ptr %0, ptr %2, align 8
  ret ptr @"_ZZN4pkpy5VoidP9_registerEPNS_2VMEPNS_8PyObjectES4_EN3$_38__invokeES2_S4_S4_"
}

; Function Attrs: mustprogress nounwind uwtable
define internal noundef ptr @"_ZZN4pkpy5VoidP9_registerEPNS_2VMEPNS_8PyObjectES4_ENK3$_2cvPFNS_3StrES2_S4_EEv"(ptr noundef nonnull align 1 dereferenceable(1) %0) #6 align 2 {
  %2 = alloca ptr, align 8
  store ptr %0, ptr %2, align 8
  ret ptr @"_ZZN4pkpy5VoidP9_registerEPNS_2VMEPNS_8PyObjectES4_EN3$_28__invokeES2_S4_"
}

; Function Attrs: mustprogress nounwind uwtable
define internal noundef ptr @"_ZZN4pkpy5VoidP9_registerEPNS_2VMEPNS_8PyObjectES4_ENK3$_1cvPFlS2_S4_EEv"(ptr noundef nonnull align 1 dereferenceable(1) %0) #6 align 2 {
  %2 = alloca ptr, align 8
  store ptr %0, ptr %2, align 8
  ret ptr @"_ZZN4pkpy5VoidP9_registerEPNS_2VMEPNS_8PyObjectES4_EN3$_18__invokeES2_S4_"
}

; Function Attrs: mustprogress nounwind uwtable
define linkonce_odr void @_ZN4pkpy3anyD2Ev(ptr noundef nonnull align 8 dereferenceable(16) %0) unnamed_addr #6 comdat align 2 personality ptr @__gxx_personality_v0 {
  %2 = alloca ptr, align 8
  store ptr %0, ptr %2, align 8
  %3 = load ptr, ptr %2, align 8
  %4 = getelementptr inbounds %"struct.pkpy::any", ptr %3, i32 0, i32 1
  %5 = load ptr, ptr %4, align 8
  %6 = icmp ne ptr %5, null
  br i1 %6, label %7, label %21

7:                                                ; preds = %1
  %8 = getelementptr inbounds %"struct.pkpy::any", ptr %3, i32 0, i32 1
  %9 = load ptr, ptr %8, align 8
  %10 = getelementptr inbounds %"struct.pkpy::any::vtable", ptr %9, i32 0, i32 1
  %11 = load ptr, ptr %10, align 8
  %12 = icmp ne ptr %11, null
  br i1 %12, label %13, label %21

13:                                               ; preds = %7
  %14 = getelementptr inbounds %"struct.pkpy::any", ptr %3, i32 0, i32 1
  %15 = load ptr, ptr %14, align 8
  %16 = getelementptr inbounds %"struct.pkpy::any::vtable", ptr %15, i32 0, i32 1
  %17 = load ptr, ptr %16, align 8
  %18 = getelementptr inbounds %"struct.pkpy::any", ptr %3, i32 0, i32 0
  %19 = load ptr, ptr %18, align 8
  invoke void %17(ptr noundef %19)
          to label %20 unwind label %22

20:                                               ; preds = %13
  br label %21

21:                                               ; preds = %20, %7, %1
  ret void

22:                                               ; preds = %13
  %23 = landingpad { ptr, i32 }
          catch ptr null
  %24 = extractvalue { ptr, i32 } %23, 0
  call void @__clang_call_terminate(ptr %24) #14
  unreachable
}

; Function Attrs: mustprogress nounwind uwtable
define linkonce_odr void @_ZN4pkpy3anyC2Ev(ptr noundef nonnull align 8 dereferenceable(16) %0) unnamed_addr #6 comdat align 2 {
  %2 = alloca ptr, align 8
  store ptr %0, ptr %2, align 8
  %3 = load ptr, ptr %2, align 8
  %4 = getelementptr inbounds %"struct.pkpy::any", ptr %3, i32 0, i32 0
  store ptr null, ptr %4, align 8
  %5 = getelementptr inbounds %"struct.pkpy::any", ptr %3, i32 0, i32 1
  store ptr null, ptr %5, align 8
  ret void
}

; Function Attrs: mustprogress nounwind uwtable
define internal noundef ptr @"_ZZN4pkpy5VoidP9_registerEPNS_2VMEPNS_8PyObjectES4_ENK3$_0cvPFS4_S2_NS_8ArgsViewEEEv"(ptr noundef nonnull align 1 dereferenceable(1) %0) #6 align 2 {
  %2 = alloca ptr, align 8
  store ptr %0, ptr %2, align 8
  ret ptr @"_ZZN4pkpy5VoidP9_registerEPNS_2VMEPNS_8PyObjectES4_EN3$_08__invokeES2_NS_8ArgsViewE"
}

; Function Attrs: mustprogress uwtable
define void @_ZN4pkpy5VoidP9_registerEPNS_2VMEPNS_8PyObjectES4_(ptr noundef %0, ptr noundef %1, ptr noundef %2) #4 align 2 personality ptr @__gxx_personality_v0 {
  %4 = alloca ptr, align 8
  %5 = alloca ptr, align 8
  %6 = alloca ptr, align 8
  %7 = alloca %"struct.pkpy::StrName", align 2
  %8 = alloca %class.anon, align 1
  %9 = alloca %"struct.pkpy::any", align 8
  %10 = alloca ptr, align 8
  %11 = alloca i32, align 4
  %12 = alloca %"struct.pkpy::Type", align 2
  %13 = alloca %class.anon.50, align 1
  %14 = alloca %"struct.pkpy::Type", align 2
  %15 = alloca %class.anon.52, align 1
  %16 = alloca %"struct.pkpy::Type", align 2
  %17 = alloca %class.anon.54, align 1
  %18 = alloca %"struct.pkpy::Type", align 2
  %19 = alloca %class.anon.56, align 1
  %20 = alloca %"struct.pkpy::Type", align 2
  %21 = alloca %class.anon.58, align 1
  %22 = alloca %"struct.pkpy::Type", align 2
  %23 = alloca %class.anon.60, align 1
  %24 = alloca %"struct.pkpy::Type", align 2
  %25 = alloca %class.anon.62, align 1
  store ptr %0, ptr %4, align 8
  store ptr %1, ptr %5, align 8
  store ptr %2, ptr %6, align 8
  %26 = load ptr, ptr %4, align 8
  %27 = load ptr, ptr %6, align 8
  call void @llvm.memcpy.p0.p0.i64(ptr align 2 %7, ptr align 2 @_ZN4pkpy7__new__E, i64 2, i1 false)
  %28 = call noundef ptr @"_ZZN4pkpy5VoidP9_registerEPNS_2VMEPNS_8PyObjectES4_ENK3$_0cvPFS4_S2_NS_8ArgsViewEEEv"(ptr noundef nonnull align 1 dereferenceable(1) %8) #3
  call void @_ZN4pkpy3anyC2Ev(ptr noundef nonnull align 8 dereferenceable(16) %9)
  %29 = getelementptr inbounds %"struct.pkpy::StrName", ptr %7, i32 0, i32 0
  %30 = load i16, ptr %29, align 2
  %31 = invoke noundef ptr @_ZN4pkpy2VM9bind_funcEPNS_8PyObjectENS_7StrNameEiPFS2_PS0_NS_8ArgsViewEENS_3anyENS_8BindTypeE(ptr noundef nonnull align 8 dereferenceable(264913) %26, ptr noundef %27, i16 %30, i32 noundef 2, ptr noundef %28, ptr noundef %9, i32 noundef 0)
          to label %32 unwind label %75

32:                                               ; preds = %3
  call void @_ZN4pkpy3anyD2Ev(ptr noundef nonnull align 8 dereferenceable(16) %9) #3
  %33 = load ptr, ptr %4, align 8
  %34 = load ptr, ptr %6, align 8
  %35 = getelementptr inbounds %"struct.pkpy::Py_", ptr %34, i32 0, i32 1
  call void @llvm.memcpy.p0.p0.i64(ptr align 2 %12, ptr align 8 %35, i64 2, i1 false)
  %36 = call noundef ptr @"_ZZN4pkpy5VoidP9_registerEPNS_2VMEPNS_8PyObjectES4_ENK3$_1cvPFlS2_S4_EEv"(ptr noundef nonnull align 1 dereferenceable(1) %13) #3
  %37 = getelementptr inbounds %"struct.pkpy::Type", ptr %12, i32 0, i32 0
  %38 = load i16, ptr %37, align 2
  call void @_ZN4pkpy2VM12bind__hash__ENS_4TypeEPFlPS0_PNS_8PyObjectEE(ptr noundef nonnull align 8 dereferenceable(264913) %33, i16 %38, ptr noundef %36)
  %39 = load ptr, ptr %4, align 8
  %40 = load ptr, ptr %6, align 8
  %41 = getelementptr inbounds %"struct.pkpy::Py_", ptr %40, i32 0, i32 1
  call void @llvm.memcpy.p0.p0.i64(ptr align 2 %14, ptr align 8 %41, i64 2, i1 false)
  %42 = call noundef ptr @"_ZZN4pkpy5VoidP9_registerEPNS_2VMEPNS_8PyObjectES4_ENK3$_2cvPFNS_3StrES2_S4_EEv"(ptr noundef nonnull align 1 dereferenceable(1) %15) #3
  %43 = getelementptr inbounds %"struct.pkpy::Type", ptr %14, i32 0, i32 0
  %44 = load i16, ptr %43, align 2
  call void @_ZN4pkpy2VM12bind__repr__ENS_4TypeEPFNS_3StrEPS0_PNS_8PyObjectEE(ptr noundef nonnull align 8 dereferenceable(264913) %39, i16 %44, ptr noundef %42)
  %45 = load ptr, ptr %4, align 8
  %46 = load ptr, ptr %6, align 8
  %47 = getelementptr inbounds %"struct.pkpy::Py_", ptr %46, i32 0, i32 1
  call void @llvm.memcpy.p0.p0.i64(ptr align 2 %16, ptr align 8 %47, i64 2, i1 false)
  %48 = call noundef ptr @"_ZZN4pkpy5VoidP9_registerEPNS_2VMEPNS_8PyObjectES4_ENK3$_3cvPFS4_S2_S4_S4_EEv"(ptr noundef nonnull align 1 dereferenceable(1) %17) #3
  %49 = getelementptr inbounds %"struct.pkpy::Type", ptr %16, i32 0, i32 0
  %50 = load i16, ptr %49, align 2
  call void @_ZN4pkpy2VM10bind__eq__ENS_4TypeEPFPNS_8PyObjectEPS0_S3_S3_E(ptr noundef nonnull align 8 dereferenceable(264913) %45, i16 %50, ptr noundef %48)
  %51 = load ptr, ptr %4, align 8
  %52 = load ptr, ptr %6, align 8
  %53 = getelementptr inbounds %"struct.pkpy::Py_", ptr %52, i32 0, i32 1
  call void @llvm.memcpy.p0.p0.i64(ptr align 2 %18, ptr align 8 %53, i64 2, i1 false)
  %54 = call noundef ptr @"_ZZN4pkpy5VoidP9_registerEPNS_2VMEPNS_8PyObjectES4_ENK3$_4cvPFS4_S2_S4_S4_EEv"(ptr noundef nonnull align 1 dereferenceable(1) %19) #3
  %55 = getelementptr inbounds %"struct.pkpy::Type", ptr %18, i32 0, i32 0
  %56 = load i16, ptr %55, align 2
  call void @_ZN4pkpy2VM10bind__lt__ENS_4TypeEPFPNS_8PyObjectEPS0_S3_S3_E(ptr noundef nonnull align 8 dereferenceable(264913) %51, i16 %56, ptr noundef %54)
  %57 = load ptr, ptr %4, align 8
  %58 = load ptr, ptr %6, align 8
  %59 = getelementptr inbounds %"struct.pkpy::Py_", ptr %58, i32 0, i32 1
  call void @llvm.memcpy.p0.p0.i64(ptr align 2 %20, ptr align 8 %59, i64 2, i1 false)
  %60 = call noundef ptr @"_ZZN4pkpy5VoidP9_registerEPNS_2VMEPNS_8PyObjectES4_ENK3$_5cvPFS4_S2_S4_S4_EEv"(ptr noundef nonnull align 1 dereferenceable(1) %21) #3
  %61 = getelementptr inbounds %"struct.pkpy::Type", ptr %20, i32 0, i32 0
  %62 = load i16, ptr %61, align 2
  call void @_ZN4pkpy2VM10bind__le__ENS_4TypeEPFPNS_8PyObjectEPS0_S3_S3_E(ptr noundef nonnull align 8 dereferenceable(264913) %57, i16 %62, ptr noundef %60)
  %63 = load ptr, ptr %4, align 8
  %64 = load ptr, ptr %6, align 8
  %65 = getelementptr inbounds %"struct.pkpy::Py_", ptr %64, i32 0, i32 1
  call void @llvm.memcpy.p0.p0.i64(ptr align 2 %22, ptr align 8 %65, i64 2, i1 false)
  %66 = call noundef ptr @"_ZZN4pkpy5VoidP9_registerEPNS_2VMEPNS_8PyObjectES4_ENK3$_6cvPFS4_S2_S4_S4_EEv"(ptr noundef nonnull align 1 dereferenceable(1) %23) #3
  %67 = getelementptr inbounds %"struct.pkpy::Type", ptr %22, i32 0, i32 0
  %68 = load i16, ptr %67, align 2
  call void @_ZN4pkpy2VM10bind__gt__ENS_4TypeEPFPNS_8PyObjectEPS0_S3_S3_E(ptr noundef nonnull align 8 dereferenceable(264913) %63, i16 %68, ptr noundef %66)
  %69 = load ptr, ptr %4, align 8
  %70 = load ptr, ptr %6, align 8
  %71 = getelementptr inbounds %"struct.pkpy::Py_", ptr %70, i32 0, i32 1
  call void @llvm.memcpy.p0.p0.i64(ptr align 2 %24, ptr align 8 %71, i64 2, i1 false)
  %72 = call noundef ptr @"_ZZN4pkpy5VoidP9_registerEPNS_2VMEPNS_8PyObjectES4_ENK3$_7cvPFS4_S2_S4_S4_EEv"(ptr noundef nonnull align 1 dereferenceable(1) %25) #3
  %73 = getelementptr inbounds %"struct.pkpy::Type", ptr %24, i32 0, i32 0
  %74 = load i16, ptr %73, align 2
  call void @_ZN4pkpy2VM10bind__ge__ENS_4TypeEPFPNS_8PyObjectEPS0_S3_S3_E(ptr noundef nonnull align 8 dereferenceable(264913) %69, i16 %74, ptr noundef %72)
  ret void

75:                                               ; preds = %3
  %76 = landingpad { ptr, i32 }
          cleanup
  %77 = extractvalue { ptr, i32 } %76, 0
  store ptr %77, ptr %10, align 8
  %78 = extractvalue { ptr, i32 } %76, 1
  store i32 %78, ptr %11, align 4
  call void @_ZN4pkpy3anyD2Ev(ptr noundef nonnull align 8 dereferenceable(16) %9) #3
  br label %79

79:                                               ; preds = %75
  %80 = load ptr, ptr %10, align 8
  %81 = load i32, ptr %11, align 4
  %82 = insertvalue { ptr, i32 } poison, ptr %80, 0
  %83 = insertvalue { ptr, i32 } %82, i32 %81, 1
  resume { ptr, i32 } %83
}