; Function Attrs: mustprogress uwtable
define void @_ZN4pkpy5VoidP9_registerEPNS_2VMEPNS_8PyObjectES4_(ptr noundef nonnull %0, ptr nocapture readnone %1, ptr noundef %2) #3 align 2 personality ptr @__gxx_personality_v0 {
  %4 = alloca %"struct.pkpy::any", align 8
  %.sroa.07.0.copyload = load i16, ptr @_ZN4pkpy7__new__E, align 2
  call void @llvm.memset.p0.i64(ptr noundef nonnull align 8 dereferenceable(16) %4, i8 0, i64 16, i1 false)
  %5 = invoke noundef ptr @_ZN4pkpy2VM9bind_funcEPNS_8PyObjectENS_7StrNameEiPFS2_PS0_NS_8ArgsViewEENS_3anyENS_8BindTypeE(ptr noundef nonnull align 8 dereferenceable(264913) %0, ptr noundef %2, i16 %.sroa.07.0.copyload, i32 noundef 2, ptr noundef nonnull @"_ZZN4pkpy5VoidP9_registerEPNS_2VMEPNS_8PyObjectES4_EN3$_08__invokeES2_NS_8ArgsViewE", ptr noundef nonnull %4, i32 noundef 0)
          to label %6 unwind label %18

6:                                                ; preds = %3
  %7 = getelementptr inbounds i8, ptr %4, i64 8
  %8 = load ptr, ptr %7, align 8
  %.not.i = icmp eq ptr %8, null
  br i1 %.not.i, label %_ZN4pkpy3anyD2Ev.exit, label %9

9:                                                ; preds = %6
  %10 = getelementptr inbounds i8, ptr %8, i64 8
  %11 = load ptr, ptr %10, align 8
  %.not2.i = icmp eq ptr %11, null
  br i1 %.not2.i, label %_ZN4pkpy3anyD2Ev.exit, label %12

12:                                               ; preds = %9
  %13 = load ptr, ptr %4, align 8
  invoke void %11(ptr noundef %13)
          to label %_ZN4pkpy3anyD2Ev.exit unwind label %14

14:                                               ; preds = %12
  %15 = landingpad { ptr, i32 }
          catch ptr null
  %16 = extractvalue { ptr, i32 } %15, 0
  call void @__clang_call_terminate(ptr %16) #23
  unreachable

_ZN4pkpy3anyD2Ev.exit:                            ; preds = %6, %9, %12
  %17 = getelementptr inbounds i8, ptr %2, i64 24
  %.sroa.06.0.copyload = load i16, ptr %17, align 8
  call void @_ZN4pkpy2VM12bind__hash__ENS_4TypeEPFlPS0_PNS_8PyObjectEE(ptr noundef nonnull align 8 dereferenceable(264913) %0, i16 %.sroa.06.0.copyload, ptr noundef nonnull @"_ZZN4pkpy5VoidP9_registerEPNS_2VMEPNS_8PyObjectES4_EN3$_18__invokeES2_S4_")
  %.sroa.05.0.copyload = load i16, ptr %17, align 8
  call void @_ZN4pkpy2VM12bind__repr__ENS_4TypeEPFNS_3StrEPS0_PNS_8PyObjectEE(ptr noundef nonnull align 8 dereferenceable(264913) %0, i16 %.sroa.05.0.copyload, ptr noundef nonnull @"_ZZN4pkpy5VoidP9_registerEPNS_2VMEPNS_8PyObjectES4_EN3$_28__invokeES2_S4_")
  %.sroa.04.0.copyload = load i16, ptr %17, align 8
  call void @_ZN4pkpy2VM10bind__eq__ENS_4TypeEPFPNS_8PyObjectEPS0_S3_S3_E(ptr noundef nonnull align 8 dereferenceable(264913) %0, i16 %.sroa.04.0.copyload, ptr noundef nonnull @"_ZZN4pkpy5VoidP9_registerEPNS_2VMEPNS_8PyObjectES4_EN3$_38__invokeES2_S4_S4_")
  %.sroa.03.0.copyload = load i16, ptr %17, align 8
  call void @_ZN4pkpy2VM10bind__lt__ENS_4TypeEPFPNS_8PyObjectEPS0_S3_S3_E(ptr noundef nonnull align 8 dereferenceable(264913) %0, i16 %.sroa.03.0.copyload, ptr noundef nonnull @"_ZZN4pkpy5VoidP9_registerEPNS_2VMEPNS_8PyObjectES4_EN3$_48__invokeES2_S4_S4_")
  %.sroa.02.0.copyload = load i16, ptr %17, align 8
  call void @_ZN4pkpy2VM10bind__le__ENS_4TypeEPFPNS_8PyObjectEPS0_S3_S3_E(ptr noundef nonnull align 8 dereferenceable(264913) %0, i16 %.sroa.02.0.copyload, ptr noundef nonnull @"_ZZN4pkpy5VoidP9_registerEPNS_2VMEPNS_8PyObjectES4_EN3$_58__invokeES2_S4_S4_")
  %.sroa.01.0.copyload = load i16, ptr %17, align 8
  call void @_ZN4pkpy2VM10bind__gt__ENS_4TypeEPFPNS_8PyObjectEPS0_S3_S3_E(ptr noundef nonnull align 8 dereferenceable(264913) %0, i16 %.sroa.01.0.copyload, ptr noundef nonnull @"_ZZN4pkpy5VoidP9_registerEPNS_2VMEPNS_8PyObjectES4_EN3$_68__invokeES2_S4_S4_")
  %.sroa.0.0.copyload = load i16, ptr %17, align 8
  call void @_ZN4pkpy2VM10bind__ge__ENS_4TypeEPFPNS_8PyObjectEPS0_S3_S3_E(ptr noundef nonnull align 8 dereferenceable(264913) %0, i16 %.sroa.0.0.copyload, ptr noundef nonnull @"_ZZN4pkpy5VoidP9_registerEPNS_2VMEPNS_8PyObjectES4_EN3$_78__invokeES2_S4_S4_")
  ret void

18:                                               ; preds = %3
  %19 = landingpad { ptr, i32 }
          cleanup
  %20 = getelementptr inbounds i8, ptr %4, i64 8
  %21 = load ptr, ptr %20, align 8
  %.not.i24 = icmp eq ptr %21, null
  br i1 %.not.i24, label %_ZN4pkpy3anyD2Ev.exit26, label %22

22:                                               ; preds = %18
  %23 = getelementptr inbounds i8, ptr %21, i64 8
  %24 = load ptr, ptr %23, align 8
  %.not2.i25 = icmp eq ptr %24, null
  br i1 %.not2.i25, label %_ZN4pkpy3anyD2Ev.exit26, label %25

25:                                               ; preds = %22
  %26 = load ptr, ptr %4, align 8
  invoke void %24(ptr noundef %26)
          to label %_ZN4pkpy3anyD2Ev.exit26 unwind label %27

27:                                               ; preds = %25
  %28 = landingpad { ptr, i32 }
          catch ptr null
  %29 = extractvalue { ptr, i32 } %28, 0
  call void @__clang_call_terminate(ptr %29) #23
  unreachable

_ZN4pkpy3anyD2Ev.exit26:                          ; preds = %18, %22, %25
  resume { ptr, i32 } %19
}